; Function Attrs: nounwind sspstrong uwtable
define dso_local void @msix_vector_use(ptr noundef readonly captures(none) %dev, i32 noundef %vector) local_unnamed_addr #0 {
entry:
  %msix_entries_nr = getelementptr inbounds nuw i8, ptr %dev, i64 1268
  %0 = load i32, ptr %msix_entries_nr, align 4
  %cmp = icmp ult i32 %vector, %0
  br i1 %cmp, label %if.end, label %if.else

if.else:                                          ; preds = %entry
  tail call void @__assert_fail(ptr noundef nonnull @.str, ptr noundef nonnull @.str.1, i32 noundef 569, ptr noundef nonnull @__PRETTY_FUNCTION__.msix_vector_use) #15
  unreachable

if.end:                                           ; preds = %entry
  %msix_entry_used = getelementptr inbounds nuw i8, ptr %dev, i64 2144
  %1 = load ptr, ptr %msix_entry_used, align 16
  %idxprom = zext i32 %vector to i64
  %arrayidx = getelementptr i32, ptr %1, i64 %idxprom
  %2 = load i32, ptr %arrayidx, align 4
  %inc = add i32 %2, 1
  store i32 %inc, ptr %arrayidx, align 4
  ret void
}